target datalayout = "e-m:e-p270:32:32-p271:32:32-p272:64:64-i64:64-i128:128-f80:128-n8:16:32:64-S128"
target triple = "x86_64-unknown-linux-gnu"

%class.approx_set = type { %class.approx_set_tpl }
%class.approx_set_tpl = type { i64 }
%class.symbol = type { ptr }
%"struct.q::instruction" = type { i32, ptr }
%class.decl = type { %class.ast, %class.symbol, ptr }
%class.ast = type { i32, i24, i32, i32 }
%"struct.q::get_cgr" = type { %"struct.q::instruction", ptr, %class.approx_set, i16, i32, [0 x i32] }

@.str = private unnamed_addr constant [2 x i8] c"N\00", align 1
@.str.3 = private unnamed_addr constant [2 x i8] c" \00", align 1
@.str.4 = private unnamed_addr constant [2 x i8] c")\00", align 1
@.str.5 = private unnamed_addr constant [9 x i8] c"(GET_CGR\00", align 1
@.str.36 = private unnamed_addr constant [5 x i8] c"null\00", align 1
@.str.37 = private unnamed_addr constant [3 x i8] c"k!\00", align 1

; Function Attrs: mustprogress uwtable
define linkonce_odr hidden noundef nonnull align 8 dereferenceable(8) ptr @_ZlsRSo6symbol(ptr noundef nonnull align 8 dereferenceable(8) %target, ptr %s.coerce) #5 comdat {
entry:
  %s = alloca %class.symbol, align 8
  %target.addr = alloca ptr, align 8
  %coerce.dive = getelementptr inbounds %class.symbol, ptr %s, i32 0, i32 0
  store ptr %s.coerce, ptr %coerce.dive, align 8
  store ptr %target, ptr %target.addr, align 8
  %m_data = getelementptr inbounds %class.symbol, ptr %s, i32 0, i32 0
  %0 = load ptr, ptr %m_data, align 8
  %1 = ptrtoint ptr %0 to i64
  %and = and i64 %1, 7
  %cmp = icmp eq i64 %and, 0
  br i1 %cmp, label %if.then, label %if.else5

if.then:                                          ; preds = %entry
  %m_data1 = getelementptr inbounds %class.symbol, ptr %s, i32 0, i32 0
  %2 = load ptr, ptr %m_data1, align 8
  %tobool = icmp ne ptr %2, null
  br i1 %tobool, label %if.then2, label %if.else

if.then2:                                         ; preds = %if.then
  %3 = load ptr, ptr %target.addr, align 8
  %m_data3 = getelementptr inbounds %class.symbol, ptr %s, i32 0, i32 0
  %4 = load ptr, ptr %m_data3, align 8
  %call = call noundef nonnull align 8 dereferenceable(8) ptr @_ZStlsISt11char_traitsIcEERSt13basic_ostreamIcT_ES5_PKc(ptr noundef nonnull align 8 dereferenceable(8) %3, ptr noundef %4)
  br label %if.end

if.else:                                          ; preds = %if.then
  %5 = load ptr, ptr %target.addr, align 8
  %call4 = call noundef nonnull align 8 dereferenceable(8) ptr @_ZStlsISt11char_traitsIcEERSt13basic_ostreamIcT_ES5_PKc(ptr noundef nonnull align 8 dereferenceable(8) %5, ptr noundef @.str.36)
  br label %if.end

if.end:                                           ; preds = %if.else, %if.then2
  br label %if.end9

if.else5:                                         ; preds = %entry
  %6 = load ptr, ptr %target.addr, align 8
  %call6 = call noundef nonnull align 8 dereferenceable(8) ptr @_ZStlsISt11char_traitsIcEERSt13basic_ostreamIcT_ES5_PKc(ptr noundef nonnull align 8 dereferenceable(8) %6, ptr noundef @.str.37)
  %m_data7 = getelementptr inbounds %class.symbol, ptr %s, i32 0, i32 0
  %7 = load ptr, ptr %m_data7, align 8
  %8 = ptrtoint ptr %7 to i64
  %shr = lshr i64 %8, 3
  %conv = trunc i64 %shr to i32
  %call8 = call noundef nonnull align 8 dereferenceable(8) ptr @_ZNSolsEi(ptr noundef nonnull align 8 dereferenceable(8) %call6, i32 noundef %conv)
  br label %if.end9

if.end9:                                          ; preds = %if.else5, %if.end
  %9 = load ptr, ptr %target.addr, align 8
  ret ptr %9
}

; Function Attrs: mustprogress nounwind uwtable
define linkonce_odr hidden noundef nonnull align 8 dereferenceable(8) ptr @_ZNK4decl8get_nameEv(ptr noundef nonnull align 8 dereferenceable(32) %this) #4 comdat align 2 {
entry:
  %this.addr = alloca ptr, align 8
  store ptr %this, ptr %this.addr, align 8
  %this1 = load ptr, ptr %this.addr, align 8
  %m_name = getelementptr inbounds %class.decl, ptr %this1, i32 0, i32 1
  ret ptr %m_name
}

; Function Attrs: mustprogress uwtable
define hidden void @_ZN1q16display_num_argsERSoj(ptr noundef nonnull align 8 dereferenceable(8) %out, i32 noundef %num_args) #5 {
entry:
  %out.addr = alloca ptr, align 8
  %num_args.addr = alloca i32, align 4
  store ptr %out, ptr %out.addr, align 8
  store i32 %num_args, ptr %num_args.addr, align 4
  %0 = load i32, ptr %num_args.addr, align 4
  %cmp = icmp ule i32 %0, 6
  br i1 %cmp, label %if.then, label %if.else

if.then:                                          ; preds = %entry
  %1 = load ptr, ptr %out.addr, align 8
  %2 = load i32, ptr %num_args.addr, align 4
  %call = call noundef nonnull align 8 dereferenceable(8) ptr @_ZNSolsEj(ptr noundef nonnull align 8 dereferenceable(8) %1, i32 noundef %2)
  br label %if.end

if.else:                                          ; preds = %entry
  %3 = load ptr, ptr %out.addr, align 8
  %call1 = call noundef nonnull align 8 dereferenceable(8) ptr @_ZStlsISt11char_traitsIcEERSt13basic_ostreamIcT_ES5_PKc(ptr noundef nonnull align 8 dereferenceable(8) %3, ptr noundef @.str)
  br label %if.end

if.end:                                           ; preds = %if.else, %if.then
  ret void
}

; Function Attrs: mustprogress uwtable
define hidden void @_ZN1q15display_get_cgrERSoRKNS_7get_cgrE(ptr noundef nonnull align 8 dereferenceable(8) %out, ptr noundef nonnull align 8 dereferenceable(40) %c) #5 {
entry:
  %out.addr = alloca ptr, align 8
  %c.addr = alloca ptr, align 8
  %agg.tmp = alloca %class.symbol, align 8
  %i = alloca i32, align 4
  store ptr %out, ptr %out.addr, align 8
  store ptr %c, ptr %c.addr, align 8
  %0 = load ptr, ptr %out.addr, align 8
  %call = call noundef nonnull align 8 dereferenceable(8) ptr @_ZStlsISt11char_traitsIcEERSt13basic_ostreamIcT_ES5_PKc(ptr noundef nonnull align 8 dereferenceable(8) %0, ptr noundef @.str.5)
  %1 = load ptr, ptr %out.addr, align 8
  %2 = load ptr, ptr %c.addr, align 8
  %m_num_args = getelementptr inbounds %"struct.q::get_cgr", ptr %2, i32 0, i32 3
  %3 = load i16, ptr %m_num_args, align 8
  %conv = zext i16 %3 to i32
  call void @_ZN1q16display_num_argsERSoj(ptr noundef nonnull align 8 dereferenceable(8) %1, i32 noundef %conv)
  %4 = load ptr, ptr %out.addr, align 8
  %call1 = call noundef nonnull align 8 dereferenceable(8) ptr @_ZStlsISt11char_traitsIcEERSt13basic_ostreamIcT_ES5_PKc(ptr noundef nonnull align 8 dereferenceable(8) %4, ptr noundef @.str.3)
  %5 = load ptr, ptr %c.addr, align 8
  %m_label = getelementptr inbounds %"struct.q::get_cgr", ptr %5, i32 0, i32 1
  %6 = load ptr, ptr %m_label, align 8
  %call2 = call noundef nonnull align 8 dereferenceable(8) ptr @_ZNK4decl8get_nameEv(ptr noundef nonnull align 8 dereferenceable(32) %6)
  call void @llvm.memcpy.p0.p0.i64(ptr align 8 %agg.tmp, ptr align 8 %call2, i64 8, i1 false)
  %coerce.dive = getelementptr inbounds %class.symbol, ptr %agg.tmp, i32 0, i32 0
  %7 = load ptr, ptr %coerce.dive, align 8
  %call3 = call noundef nonnull align 8 dereferenceable(8) ptr @_ZlsRSo6symbol(ptr noundef nonnull align 8 dereferenceable(8) %call1, ptr %7)
  %call4 = call noundef nonnull align 8 dereferenceable(8) ptr @_ZStlsISt11char_traitsIcEERSt13basic_ostreamIcT_ES5_PKc(ptr noundef nonnull align 8 dereferenceable(8) %call3, ptr noundef @.str.3)
  %8 = load ptr, ptr %c.addr, align 8
  %m_oreg = getelementptr inbounds %"struct.q::get_cgr", ptr %8, i32 0, i32 4
  %9 = load i32, ptr %m_oreg, align 4
  %call5 = call noundef nonnull align 8 dereferenceable(8) ptr @_ZNSolsEj(ptr noundef nonnull align 8 dereferenceable(8) %call4, i32 noundef %9)
  store i32 0, ptr %i, align 4
  br label %for.cond

for.cond:                                         ; preds = %for.inc, %entry
  %10 = load i32, ptr %i, align 4
  %11 = load ptr, ptr %c.addr, align 8
  %m_num_args6 = getelementptr inbounds %"struct.q::get_cgr", ptr %11, i32 0, i32 3
  %12 = load i16, ptr %m_num_args6, align 8
  %conv7 = zext i16 %12 to i32
  %cmp = icmp ult i32 %10, %conv7
  br i1 %cmp, label %for.body, label %for.end

for.body:                                         ; preds = %for.cond
  %13 = load ptr, ptr %out.addr, align 8
  %call8 = call noundef nonnull align 8 dereferenceable(8) ptr @_ZStlsISt11char_traitsIcEERSt13basic_ostreamIcT_ES5_PKc(ptr noundef nonnull align 8 dereferenceable(8) %13, ptr noundef @.str.3)
  %14 = load ptr, ptr %c.addr, align 8
  %m_iregs = getelementptr inbounds %"struct.q::get_cgr", ptr %14, i32 0, i32 5
  %15 = load i32, ptr %i, align 4
  %idxprom = zext i32 %15 to i64
  %arrayidx = getelementptr inbounds [0 x i32], ptr %m_iregs, i64 0, i64 %idxprom
  %16 = load i32, ptr %arrayidx, align 4
  %call9 = call noundef nonnull align 8 dereferenceable(8) ptr @_ZNSolsEj(ptr noundef nonnull align 8 dereferenceable(8) %call8, i32 noundef %16)
  br label %for.inc

for.inc:                                          ; preds = %for.body
  %17 = load i32, ptr %i, align 4
  %inc = add i32 %17, 1
  store i32 %inc, ptr %i, align 4
  br label %for.cond, !llvm.loop !6

for.end:                                          ; preds = %for.cond
  %18 = load ptr, ptr %out.addr, align 8
  %call10 = call noundef nonnull align 8 dereferenceable(8) ptr @_ZStlsISt11char_traitsIcEERSt13basic_ostreamIcT_ES5_PKc(ptr noundef nonnull align 8 dereferenceable(8) %18, ptr noundef @.str.4)
  ret void
}