; Function Attrs: mustprogress uwtable
define hidden void @_ZN1q15display_get_cgrERSoRKNS_7get_cgrE(ptr noundef nonnull align 8 dereferenceable(8) %out, ptr nocapture noundef nonnull readonly align 8 dereferenceable(40) %c) local_unnamed_addr #4 {
entry:
  %call = tail call noundef nonnull align 8 dereferenceable(8) ptr @_ZStlsISt11char_traitsIcEERSt13basic_ostreamIcT_ES5_PKc(ptr noundef nonnull align 8 dereferenceable(8) %out, ptr noundef nonnull @.str.5)
  %m_num_args = getelementptr inbounds i8, ptr %c, i64 32
  %0 = load i16, ptr %m_num_args, align 8
  %cmp.i = icmp ult i16 %0, 7
  br i1 %cmp.i, label %if.then.i, label %if.else.i

if.then.i:                                        ; preds = %entry
  %conv = zext nneg i16 %0 to i32
  %call.i = tail call noundef nonnull align 8 dereferenceable(8) ptr @_ZNSolsEj(ptr noundef nonnull align 8 dereferenceable(8) %out, i32 noundef %conv)
  br label %_ZN1q16display_num_argsERSoj.exit

if.else.i:                                        ; preds = %entry
  %call1.i = tail call noundef nonnull align 8 dereferenceable(8) ptr @_ZStlsISt11char_traitsIcEERSt13basic_ostreamIcT_ES5_PKc(ptr noundef nonnull align 8 dereferenceable(8) %out, ptr noundef nonnull @.str)
  br label %_ZN1q16display_num_argsERSoj.exit

_ZN1q16display_num_argsERSoj.exit:                ; preds = %if.then.i, %if.else.i
  %call1 = tail call noundef nonnull align 8 dereferenceable(8) ptr @_ZStlsISt11char_traitsIcEERSt13basic_ostreamIcT_ES5_PKc(ptr noundef nonnull align 8 dereferenceable(8) %out, ptr noundef nonnull @.str.3)
  %m_label = getelementptr inbounds i8, ptr %c, i64 16
  %1 = load ptr, ptr %m_label, align 8
  %m_name.i = getelementptr inbounds i8, ptr %1, i64 16
  %agg.tmp.sroa.0.0.copyload = load ptr, ptr %m_name.i, align 8
  %2 = ptrtoint ptr %agg.tmp.sroa.0.0.copyload to i64
  %and.i = and i64 %2, 7
  %cmp.i11 = icmp eq i64 %and.i, 0
  br i1 %cmp.i11, label %if.then.i12, label %if.else5.i

if.then.i12:                                      ; preds = %_ZN1q16display_num_argsERSoj.exit
  %tobool.not.i = icmp eq ptr %agg.tmp.sroa.0.0.copyload, null
  br i1 %tobool.not.i, label %if.else.i14, label %if.then2.i

if.then2.i:                                       ; preds = %if.then.i12
  %call.i13 = tail call noundef nonnull align 8 dereferenceable(8) ptr @_ZStlsISt11char_traitsIcEERSt13basic_ostreamIcT_ES5_PKc(ptr noundef nonnull align 8 dereferenceable(8) %call1, ptr noundef nonnull %agg.tmp.sroa.0.0.copyload)
  br label %_ZlsRSo6symbol.exit

if.else.i14:                                      ; preds = %if.then.i12
  %call4.i = tail call noundef nonnull align 8 dereferenceable(8) ptr @_ZStlsISt11char_traitsIcEERSt13basic_ostreamIcT_ES5_PKc(ptr noundef nonnull align 8 dereferenceable(8) %call1, ptr noundef nonnull @.str.36)
  br label %_ZlsRSo6symbol.exit

if.else5.i:                                       ; preds = %_ZN1q16display_num_argsERSoj.exit
  %call6.i = tail call noundef nonnull align 8 dereferenceable(8) ptr @_ZStlsISt11char_traitsIcEERSt13basic_ostreamIcT_ES5_PKc(ptr noundef nonnull align 8 dereferenceable(8) %call1, ptr noundef nonnull @.str.37)
  %shr.i = lshr i64 %2, 3
  %conv.i = trunc i64 %shr.i to i32
  %call8.i = tail call noundef nonnull align 8 dereferenceable(8) ptr @_ZNSolsEi(ptr noundef nonnull align 8 dereferenceable(8) %call6.i, i32 noundef %conv.i)
  br label %_ZlsRSo6symbol.exit

_ZlsRSo6symbol.exit:                              ; preds = %if.then2.i, %if.else.i14, %if.else5.i
  %call4 = tail call noundef nonnull align 8 dereferenceable(8) ptr @_ZStlsISt11char_traitsIcEERSt13basic_ostreamIcT_ES5_PKc(ptr noundef nonnull align 8 dereferenceable(8) %call1, ptr noundef nonnull @.str.3)
  %m_oreg = getelementptr inbounds i8, ptr %c, i64 36
  %3 = load i32, ptr %m_oreg, align 4
  %call5 = tail call noundef nonnull align 8 dereferenceable(8) ptr @_ZNSolsEj(ptr noundef nonnull align 8 dereferenceable(8) %call4, i32 noundef %3)
  %4 = load i16, ptr %m_num_args, align 8
  %cmp16.not = icmp eq i16 %4, 0
  br i1 %cmp16.not, label %for.end, label %for.body.lr.ph

for.body.lr.ph:                                   ; preds = %_ZlsRSo6symbol.exit
  %m_iregs = getelementptr inbounds i8, ptr %c, i64 40
  br label %for.body

for.body:                                         ; preds = %for.body.lr.ph, %for.body
  %indvars.iv = phi i64 [ 0, %for.body.lr.ph ], [ %indvars.iv.next, %for.body ]
  %call8 = tail call noundef nonnull align 8 dereferenceable(8) ptr @_ZStlsISt11char_traitsIcEERSt13basic_ostreamIcT_ES5_PKc(ptr noundef nonnull align 8 dereferenceable(8) %out, ptr noundef nonnull @.str.3)
  %arrayidx = getelementptr inbounds [0 x i32], ptr %m_iregs, i64 0, i64 %indvars.iv
  %5 = load i32, ptr %arrayidx, align 4
  %call9 = tail call noundef nonnull align 8 dereferenceable(8) ptr @_ZNSolsEj(ptr noundef nonnull align 8 dereferenceable(8) %call8, i32 noundef %5)
  %indvars.iv.next = add nuw nsw i64 %indvars.iv, 1
  %6 = load i16, ptr %m_num_args, align 8
  %7 = zext i16 %6 to i64
  %cmp = icmp ult i64 %indvars.iv.next, %7
  br i1 %cmp, label %for.body, label %for.end, !llvm.loop !6

for.end:                                          ; preds = %for.body, %_ZlsRSo6symbol.exit
  %call10 = tail call noundef nonnull align 8 dereferenceable(8) ptr @_ZStlsISt11char_traitsIcEERSt13basic_ostreamIcT_ES5_PKc(ptr noundef nonnull align 8 dereferenceable(8) %out, ptr noundef nonnull @.str.4)
  ret void
}